target datalayout = "e-m:e-p270:32:32-p271:32:32-p272:64:64-i64:64-i128:128-f80:128-n8:16:32:64-S128"
target triple = "x86_64-pc-linux-gnu"

%struct._lv_obj_t = type { ptr, ptr, ptr, ptr, ptr, %struct.lv_area_t, i32, i16, i16 }
%struct.lv_area_t = type { i32, i32, i32, i32 }
%struct.lv_event_list_t = type { %struct._lv_array_t, i8 }
%struct._lv_array_t = type { ptr, i32, i32, i32, i8 }
%struct._lv_obj_spec_attr_t = type { ptr, ptr, %struct.lv_event_list_t, %struct.lv_point_t, i32, i32, i16, i16 }
%struct.lv_point_t = type { i32, i32 }

; Function Attrs: nounwind uwtable
define i32 @lv_obj_get_child_count(ptr noundef %0) #0 {
  %2 = alloca i32, align 4
  %3 = alloca ptr, align 8
  store ptr %0, ptr %3, align 8, !tbaa !3
  br label %4

4:                                                ; preds = %1
  %5 = load ptr, ptr %3, align 8, !tbaa !3
  %6 = icmp ne ptr %5, null
  br i1 %6, label %11, label %7

7:                                                ; preds = %4
  br label %8

8:                                                ; preds = %7
  br label %9

9:                                                ; preds = %8
  br label %10

10:                                               ; preds = %9, %10
  br label %10

11:                                               ; preds = %4
  br label %12

12:                                               ; preds = %11
  %13 = load ptr, ptr %3, align 8, !tbaa !3
  %14 = getelementptr inbounds nuw %struct._lv_obj_t, ptr %13, i32 0, i32 2
  %15 = load ptr, ptr %14, align 8, !tbaa !43
  %16 = icmp eq ptr %15, null
  br i1 %16, label %17, label %18

17:                                               ; preds = %12
  store i32 0, ptr %2, align 4
  br label %25

18:                                               ; preds = %12
  %19 = load ptr, ptr %3, align 8, !tbaa !3
  %20 = getelementptr inbounds nuw %struct._lv_obj_t, ptr %19, i32 0, i32 2
  %21 = load ptr, ptr %20, align 8, !tbaa !43
  %22 = getelementptr inbounds nuw %struct._lv_obj_spec_attr_t, ptr %21, i32 0, i32 6
  %23 = load i16, ptr %22, align 8, !tbaa !64
  %24 = zext i16 %23 to i32
  store i32 %24, ptr %2, align 4
  br label %25

25:                                               ; preds = %18, %17
  %26 = load i32, ptr %2, align 4
  ret i32 %26
}