; Function Attrs: nofree norecurse nosync nounwind memory(read, inaccessiblemem: none) uwtable
define range(i32 0, 65536) i32 @lv_obj_get_child_count(ptr noundef readonly captures(address_is_null) %0) local_unnamed_addr #4 {
  %.not = icmp eq ptr %0, null
  br i1 %.not, label %.preheader, label %2

.preheader:                                       ; preds = %1, %.preheader
  br label %.preheader

2:                                                ; preds = %1
  %3 = getelementptr inbounds nuw i8, ptr %0, i64 16
  %4 = load ptr, ptr %3, align 8, !tbaa !37
  %5 = icmp eq ptr %4, null
  br i1 %5, label %10, label %6

6:                                                ; preds = %2
  %7 = getelementptr inbounds nuw i8, ptr %4, i64 64
  %8 = load i16, ptr %7, align 8, !tbaa !38
  %9 = zext i16 %8 to i32
  br label %10

10:                                               ; preds = %2, %6
  %.0 = phi i32 [ %9, %6 ], [ 0, %2 ]
  ret i32 %.0
}